target datalayout = "e-m:e-p270:32:32-p271:32:32-p272:64:64-i64:64-i128:128-f80:128-n8:16:32:64-S128"
target triple = "x86_64-pc-linux-gnu"

%struct.CordRep = type { %struct.Generic, %union.ConcatOrFunc }
%struct.Generic = type { i8, i8, i8, i8, i64 }
%union.ConcatOrFunc = type { %struct.Concatenation }
%struct.Concatenation = type { ptr, ptr }
%struct.Function = type { ptr, ptr }

@stderr = external global ptr, align 8
@.str = private unnamed_addr constant [4 x i8] c"%s\0A\00", align 1
@.str.2 = private unnamed_addr constant [30 x i8] c"2nd arg to CORD_iter5 too big\00", align 1

; Function Attrs: nounwind uwtable
define i32 @CORD_iter5(ptr noundef %0, i64 noundef %1, ptr noundef %2, ptr noundef %3, ptr noundef %4) #0 {
  %6 = alloca i32, align 4
  %7 = alloca ptr, align 8
  %8 = alloca i64, align 8
  %9 = alloca ptr, align 8
  %10 = alloca ptr, align 8
  %11 = alloca ptr, align 8
  %12 = alloca ptr, align 8
  %13 = alloca i32, align 4
  %14 = alloca ptr, align 8
  %15 = alloca i64, align 8
  %16 = alloca ptr, align 8
  %17 = alloca i64, align 8
  %18 = alloca i64, align 8
  store ptr %0, ptr %7, align 8, !tbaa !7
  store i64 %1, ptr %8, align 8, !tbaa !13
  store ptr %2, ptr %9, align 8, !tbaa !3
  store ptr %3, ptr %10, align 8, !tbaa !3
  store ptr %4, ptr %11, align 8, !tbaa !3
  %19 = load ptr, ptr %7, align 8, !tbaa !7
  %20 = icmp eq ptr null, %19
  br i1 %20, label %21, label %22

21:                                               ; preds = %5
  store i32 0, ptr %6, align 4
  br label %208

22:                                               ; preds = %5
  %23 = load ptr, ptr %7, align 8, !tbaa !7
  %24 = load i8, ptr %23, align 1, !tbaa !17
  %25 = sext i8 %24 to i32
  %26 = icmp ne i32 %25, 0
  br i1 %26, label %27, label %64

27:                                               ; preds = %22
  call void @llvm.lifetime.start.p0(i64 8, ptr %12) #9
  %28 = load ptr, ptr %7, align 8, !tbaa !7
  %29 = load i64, ptr %8, align 8, !tbaa !13
  %30 = getelementptr inbounds nuw i8, ptr %28, i64 %29
  store ptr %30, ptr %12, align 8, !tbaa !7
  %31 = load ptr, ptr %12, align 8, !tbaa !7
  %32 = load i8, ptr %31, align 1, !tbaa !17
  %33 = sext i8 %32 to i32
  %34 = icmp eq i32 %33, 0
  br i1 %34, label %35, label %38

35:                                               ; preds = %27
  %36 = load ptr, ptr @stderr, align 8, !tbaa !9
  %37 = call i32 (ptr, ptr, ...) @fprintf(ptr noundef %36, ptr noundef @.str, ptr noundef @.str.2) #9
  call void @abort() #12
  unreachable

38:                                               ; preds = %27
  %39 = load ptr, ptr %10, align 8, !tbaa !3
  %40 = icmp ne ptr %39, null
  br i1 %40, label %41, label %46

41:                                               ; preds = %38
  %42 = load ptr, ptr %10, align 8, !tbaa !3
  %43 = load ptr, ptr %12, align 8, !tbaa !7
  %44 = load ptr, ptr %11, align 8, !tbaa !3
  %45 = call i32 %42(ptr noundef %43, ptr noundef %44)
  store i32 %45, ptr %6, align 4
  store i32 1, ptr %13, align 4
  br label %63

46:                                               ; preds = %38
  br label %47

47:                                               ; preds = %59, %46
  %48 = load ptr, ptr %12, align 8, !tbaa !7
  %49 = load i8, ptr %48, align 1, !tbaa !17
  %50 = icmp ne i8 %49, 0
  br i1 %50, label %51, label %62

51:                                               ; preds = %47
  %52 = load ptr, ptr %9, align 8, !tbaa !3
  %53 = load ptr, ptr %12, align 8, !tbaa !7
  %54 = load i8, ptr %53, align 1, !tbaa !17
  %55 = load ptr, ptr %11, align 8, !tbaa !3
  %56 = call i32 %52(i8 noundef signext %54, ptr noundef %55)
  %57 = icmp ne i32 %56, 0
  br i1 %57, label %58, label %59

58:                                               ; preds = %51
  store i32 1, ptr %6, align 4
  store i32 1, ptr %13, align 4
  br label %63

59:                                               ; preds = %51
  %60 = load ptr, ptr %12, align 8, !tbaa !7
  %61 = getelementptr inbounds nuw i8, ptr %60, i32 1
  store ptr %61, ptr %12, align 8, !tbaa !7
  br label %47, !llvm.loop !45

62:                                               ; preds = %47
  store i32 0, ptr %6, align 4
  store i32 1, ptr %13, align 4
  br label %63

63:                                               ; preds = %62, %58, %41
  call void @llvm.lifetime.end.p0(i64 8, ptr %12) #9
  br label %208

64:                                               ; preds = %22
  %65 = load ptr, ptr %7, align 8, !tbaa !7
  %66 = getelementptr inbounds nuw %struct.CordRep, ptr %65, i32 0, i32 0
  %67 = getelementptr inbounds nuw %struct.Generic, ptr %66, i32 0, i32 1
  %68 = load i8, ptr %67, align 1, !tbaa !19
  %69 = sext i8 %68 to i32
  %70 = icmp eq i32 %69, 1
  br i1 %70, label %71, label %176

71:                                               ; preds = %64
  call void @llvm.lifetime.start.p0(i64 8, ptr %14) #9
  %72 = load ptr, ptr %7, align 8, !tbaa !7
  %73 = getelementptr inbounds nuw %struct.CordRep, ptr %72, i32 0, i32 1
  store ptr %73, ptr %14, align 8, !tbaa !22
  %74 = load i64, ptr %8, align 8, !tbaa !13
  %75 = icmp ugt i64 %74, 0
  br i1 %75, label %76, label %156

76:                                               ; preds = %71
  call void @llvm.lifetime.start.p0(i64 8, ptr %15) #9
  %77 = load ptr, ptr %7, align 8, !tbaa !7
  %78 = getelementptr inbounds nuw %struct.CordRep, ptr %77, i32 0, i32 0
  %79 = getelementptr inbounds nuw %struct.Generic, ptr %78, i32 0, i32 3
  %80 = load i8, ptr %79, align 1, !tbaa !35
  %81 = zext i8 %80 to i32
  %82 = icmp ne i32 %81, 0
  br i1 %82, label %83, label %89

83:                                               ; preds = %76
  %84 = load ptr, ptr %7, align 8, !tbaa !7
  %85 = getelementptr inbounds nuw %struct.CordRep, ptr %84, i32 0, i32 0
  %86 = getelementptr inbounds nuw %struct.Generic, ptr %85, i32 0, i32 3
  %87 = load i8, ptr %86, align 1, !tbaa !35
  %88 = zext i8 %87 to i64
  br label %136

89:                                               ; preds = %76
  %90 = load ptr, ptr %7, align 8, !tbaa !7
  %91 = getelementptr inbounds nuw %struct.CordRep, ptr %90, i32 0, i32 1
  %92 = getelementptr inbounds nuw %struct.Concatenation, ptr %91, i32 0, i32 0
  %93 = load ptr, ptr %92, align 8, !tbaa !17
  %94 = load i8, ptr %93, align 1, !tbaa !17
  %95 = sext i8 %94 to i32
  %96 = icmp ne i32 %95, 0
  br i1 %96, label %97, label %126

97:                                               ; preds = %89
  %98 = load ptr, ptr %7, align 8, !tbaa !7
  %99 = getelementptr inbounds nuw %struct.CordRep, ptr %98, i32 0, i32 0
  %100 = getelementptr inbounds nuw %struct.Generic, ptr %99, i32 0, i32 4
  %101 = load i64, ptr %100, align 8, !tbaa !24
  %102 = load ptr, ptr %7, align 8, !tbaa !7
  %103 = getelementptr inbounds nuw %struct.CordRep, ptr %102, i32 0, i32 1
  %104 = getelementptr inbounds nuw %struct.Concatenation, ptr %103, i32 0, i32 1
  %105 = load ptr, ptr %104, align 8, !tbaa !17
  %106 = load i8, ptr %105, align 1, !tbaa !17
  %107 = sext i8 %106 to i32
  %108 = icmp ne i32 %107, 0
  br i1 %108, label %109, label %115

109:                                              ; preds = %97
  %110 = load ptr, ptr %7, align 8, !tbaa !7
  %111 = getelementptr inbounds nuw %struct.CordRep, ptr %110, i32 0, i32 1
  %112 = getelementptr inbounds nuw %struct.Concatenation, ptr %111, i32 0, i32 1
  %113 = load ptr, ptr %112, align 8, !tbaa !17
  %114 = call i64 @strlen(ptr noundef %113) #10
  br label %123

115:                                              ; preds = %97
  %116 = load ptr, ptr %7, align 8, !tbaa !7
  %117 = getelementptr inbounds nuw %struct.CordRep, ptr %116, i32 0, i32 1
  %118 = getelementptr inbounds nuw %struct.Concatenation, ptr %117, i32 0, i32 1
  %119 = load ptr, ptr %118, align 8, !tbaa !17
  %120 = getelementptr inbounds nuw %struct.CordRep, ptr %119, i32 0, i32 0
  %121 = getelementptr inbounds nuw %struct.Generic, ptr %120, i32 0, i32 4
  %122 = load i64, ptr %121, align 8, !tbaa !24
  br label %123

123:                                              ; preds = %115, %109
  %124 = phi i64 [ %114, %109 ], [ %122, %115 ]
  %125 = sub i64 %101, %124
  br label %134

126:                                              ; preds = %89
  %127 = load ptr, ptr %7, align 8, !tbaa !7
  %128 = getelementptr inbounds nuw %struct.CordRep, ptr %127, i32 0, i32 1
  %129 = getelementptr inbounds nuw %struct.Concatenation, ptr %128, i32 0, i32 0
  %130 = load ptr, ptr %129, align 8, !tbaa !17
  %131 = getelementptr inbounds nuw %struct.CordRep, ptr %130, i32 0, i32 0
  %132 = getelementptr inbounds nuw %struct.Generic, ptr %131, i32 0, i32 4
  %133 = load i64, ptr %132, align 8, !tbaa !24
  br label %134

134:                                              ; preds = %126, %123
  %135 = phi i64 [ %125, %123 ], [ %133, %126 ]
  br label %136

136:                                              ; preds = %134, %83
  %137 = phi i64 [ %88, %83 ], [ %135, %134 ]
  store i64 %137, ptr %15, align 8, !tbaa !13
  %138 = load i64, ptr %8, align 8, !tbaa !13
  %139 = load i64, ptr %15, align 8, !tbaa !13
  %140 = icmp uge i64 %138, %139
  br i1 %140, label %141, label %152

141:                                              ; preds = %136
  %142 = load ptr, ptr %14, align 8, !tbaa !22
  %143 = getelementptr inbounds nuw %struct.Concatenation, ptr %142, i32 0, i32 1
  %144 = load ptr, ptr %143, align 8, !tbaa !28
  %145 = load i64, ptr %8, align 8, !tbaa !13
  %146 = load i64, ptr %15, align 8, !tbaa !13
  %147 = sub i64 %145, %146
  %148 = load ptr, ptr %9, align 8, !tbaa !3
  %149 = load ptr, ptr %10, align 8, !tbaa !3
  %150 = load ptr, ptr %11, align 8, !tbaa !3
  %151 = call i32 @CORD_iter5(ptr noundef %144, i64 noundef %147, ptr noundef %148, ptr noundef %149, ptr noundef %150)
  store i32 %151, ptr %6, align 4
  store i32 1, ptr %13, align 4
  br label %153

152:                                              ; preds = %136
  store i32 0, ptr %13, align 4
  br label %153

153:                                              ; preds = %152, %141
  call void @llvm.lifetime.end.p0(i64 8, ptr %15) #9
  %154 = load i32, ptr %13, align 4
  switch i32 %154, label %175 [
    i32 0, label %155
  ]

155:                                              ; preds = %153
  br label %156

156:                                              ; preds = %155, %71
  %157 = load ptr, ptr %14, align 8, !tbaa !22
  %158 = getelementptr inbounds nuw %struct.Concatenation, ptr %157, i32 0, i32 0
  %159 = load ptr, ptr %158, align 8, !tbaa !26
  %160 = load i64, ptr %8, align 8, !tbaa !13
  %161 = load ptr, ptr %9, align 8, !tbaa !3
  %162 = load ptr, ptr %10, align 8, !tbaa !3
  %163 = load ptr, ptr %11, align 8, !tbaa !3
  %164 = call i32 @CORD_iter5(ptr noundef %159, i64 noundef %160, ptr noundef %161, ptr noundef %162, ptr noundef %163)
  %165 = icmp ne i32 %164, 0
  br i1 %165, label %166, label %167

166:                                              ; preds = %156
  store i32 1, ptr %6, align 4
  store i32 1, ptr %13, align 4
  br label %175

167:                                              ; preds = %156
  %168 = load ptr, ptr %14, align 8, !tbaa !22
  %169 = getelementptr inbounds nuw %struct.Concatenation, ptr %168, i32 0, i32 1
  %170 = load ptr, ptr %169, align 8, !tbaa !28
  %171 = load ptr, ptr %9, align 8, !tbaa !3
  %172 = load ptr, ptr %10, align 8, !tbaa !3
  %173 = load ptr, ptr %11, align 8, !tbaa !3
  %174 = call i32 @CORD_iter5(ptr noundef %170, i64 noundef 0, ptr noundef %171, ptr noundef %172, ptr noundef %173)
  store i32 %174, ptr %6, align 4
  store i32 1, ptr %13, align 4
  br label %175

175:                                              ; preds = %167, %166, %153
  call void @llvm.lifetime.end.p0(i64 8, ptr %14) #9
  br label %208

176:                                              ; preds = %64
  call void @llvm.lifetime.start.p0(i64 8, ptr %16) #9
  %177 = load ptr, ptr %7, align 8, !tbaa !7
  %178 = getelementptr inbounds nuw %struct.CordRep, ptr %177, i32 0, i32 1
  store ptr %178, ptr %16, align 8, !tbaa !29
  call void @llvm.lifetime.start.p0(i64 8, ptr %17) #9
  call void @llvm.lifetime.start.p0(i64 8, ptr %18) #9
  %179 = load ptr, ptr %7, align 8, !tbaa !7
  %180 = getelementptr inbounds nuw %struct.CordRep, ptr %179, i32 0, i32 0
  %181 = getelementptr inbounds nuw %struct.Generic, ptr %180, i32 0, i32 4
  %182 = load i64, ptr %181, align 8, !tbaa !24
  store i64 %182, ptr %18, align 8, !tbaa !13
  %183 = load i64, ptr %8, align 8, !tbaa !13
  store i64 %183, ptr %17, align 8, !tbaa !13
  br label %184

184:                                              ; preds = %203, %176
  %185 = load i64, ptr %17, align 8, !tbaa !13
  %186 = load i64, ptr %18, align 8, !tbaa !13
  %187 = icmp ult i64 %185, %186
  br i1 %187, label %188, label %206

188:                                              ; preds = %184
  %189 = load ptr, ptr %9, align 8, !tbaa !3
  %190 = load ptr, ptr %16, align 8, !tbaa !29
  %191 = getelementptr inbounds nuw %struct.Function, ptr %190, i32 0, i32 0
  %192 = load ptr, ptr %191, align 8, !tbaa !31
  %193 = load i64, ptr %17, align 8, !tbaa !13
  %194 = load ptr, ptr %16, align 8, !tbaa !29
  %195 = getelementptr inbounds nuw %struct.Function, ptr %194, i32 0, i32 1
  %196 = load ptr, ptr %195, align 8, !tbaa !33
  %197 = call signext i8 %192(i64 noundef %193, ptr noundef %196)
  %198 = load ptr, ptr %11, align 8, !tbaa !3
  %199 = call i32 %189(i8 noundef signext %197, ptr noundef %198)
  %200 = icmp ne i32 %199, 0
  br i1 %200, label %201, label %202

201:                                              ; preds = %188
  store i32 1, ptr %6, align 4
  store i32 1, ptr %13, align 4
  br label %207

202:                                              ; preds = %188
  br label %203

203:                                              ; preds = %202
  %204 = load i64, ptr %17, align 8, !tbaa !13
  %205 = add i64 %204, 1
  store i64 %205, ptr %17, align 8, !tbaa !13
  br label %184, !llvm.loop !46

206:                                              ; preds = %184
  store i32 0, ptr %6, align 4
  store i32 1, ptr %13, align 4
  br label %207

207:                                              ; preds = %206, %201
  call void @llvm.lifetime.end.p0(i64 8, ptr %18) #9
  call void @llvm.lifetime.end.p0(i64 8, ptr %17) #9
  call void @llvm.lifetime.end.p0(i64 8, ptr %16) #9
  br label %208

208:                                              ; preds = %207, %175, %63, %21
  %209 = load i32, ptr %6, align 4
  ret i32 %209
}