; Function Attrs: nounwind uwtable
define i32 @CORD_iter5(ptr noundef %0, i64 noundef %1, ptr noundef readonly captures(none) %2, ptr noundef %3, ptr noundef %4) local_unnamed_addr #2 {
  %6 = icmp eq ptr %0, null
  br i1 %6, label %.loopexit, label %.lr.ph

.lr.ph:                                           ; preds = %5, %tailrecurse.backedge
  %.tr7386 = phi i64 [ %.tr73.be, %tailrecurse.backedge ], [ %1, %5 ]
  %.tr85 = phi ptr [ %.tr.be, %tailrecurse.backedge ], [ %0, %5 ]
  %7 = load i8, ptr %.tr85, align 1, !tbaa !11
  %.not = icmp eq i8 %7, 0
  br i1 %.not, label %22, label %8

8:                                                ; preds = %.lr.ph
  %9 = getelementptr inbounds nuw i8, ptr %.tr85, i64 %.tr7386
  %10 = load i8, ptr %9, align 1, !tbaa !11
  %11 = icmp eq i8 %10, 0
  br i1 %11, label %12, label %15

12:                                               ; preds = %8
  %13 = load ptr, ptr @stderr, align 8, !tbaa !7
  %14 = tail call i32 (ptr, ptr, ...) @fprintf(ptr noundef %13, ptr noundef nonnull @.str, ptr noundef nonnull @.str.2) #20
  tail call void @abort() #21
  unreachable

15:                                               ; preds = %8
  %.not69 = icmp eq ptr %3, null
  br i1 %.not69, label %.preheader, label %16

16:                                               ; preds = %15
  %17 = tail call i32 %3(ptr noundef nonnull %9, ptr noundef %4) #17
  br label %.loopexit

.preheader:                                       ; preds = %15, %20
  %.05588 = phi ptr [ %21, %20 ], [ %9, %15 ]
  %18 = phi i8 [ %.pr, %20 ], [ %10, %15 ]
  %19 = tail call i32 %2(i8 noundef signext %18, ptr noundef %4) #17
  %.not71 = icmp eq i32 %19, 0
  br i1 %.not71, label %20, label %.loopexit

20:                                               ; preds = %.preheader
  %21 = getelementptr inbounds nuw i8, ptr %.05588, i64 1
  %.pr = load i8, ptr %21, align 1, !tbaa !11
  %.not70 = icmp eq i8 %.pr, 0
  br i1 %.not70, label %.loopexit, label %.preheader, !llvm.loop !43

22:                                               ; preds = %.lr.ph
  %23 = getelementptr inbounds nuw i8, ptr %.tr85, i64 1
  %24 = load i8, ptr %23, align 1, !tbaa !13
  %25 = icmp eq i8 %24, 1
  %26 = getelementptr inbounds nuw i8, ptr %.tr85, i64 16
  br i1 %25, label %27, label %60

27:                                               ; preds = %22
  %.not63 = icmp eq i64 %.tr7386, 0
  br i1 %.not63, label %.thread, label %28

28:                                               ; preds = %27
  %29 = getelementptr inbounds nuw i8, ptr %.tr85, i64 3
  %30 = load i8, ptr %29, align 1, !tbaa !27
  %.not64 = icmp eq i8 %30, 0
  br i1 %.not64, label %33, label %31

31:                                               ; preds = %28
  %32 = zext i8 %30 to i64
  br label %53

33:                                               ; preds = %28
  %34 = load ptr, ptr %26, align 8, !tbaa !11
  %35 = load i8, ptr %34, align 1, !tbaa !11
  %.not65 = icmp eq i8 %35, 0
  br i1 %.not65, label %50, label %36

36:                                               ; preds = %33
  %37 = getelementptr inbounds nuw i8, ptr %.tr85, i64 8
  %38 = load i64, ptr %37, align 8, !tbaa !17
  %39 = getelementptr inbounds nuw i8, ptr %.tr85, i64 24
  %40 = load ptr, ptr %39, align 8, !tbaa !11
  %41 = load i8, ptr %40, align 1, !tbaa !11
  %.not66 = icmp eq i8 %41, 0
  br i1 %.not66, label %44, label %42

42:                                               ; preds = %36
  %43 = tail call i64 @strlen(ptr noundef nonnull dereferenceable(1) %40) #18
  br label %47

44:                                               ; preds = %36
  %45 = getelementptr inbounds nuw i8, ptr %40, i64 8
  %46 = load i64, ptr %45, align 8, !tbaa !17
  br label %47

47:                                               ; preds = %44, %42
  %48 = phi i64 [ %43, %42 ], [ %46, %44 ]
  %49 = sub i64 %38, %48
  br label %53

50:                                               ; preds = %33
  %51 = getelementptr inbounds nuw i8, ptr %34, i64 8
  %52 = load i64, ptr %51, align 8, !tbaa !17
  br label %53

53:                                               ; preds = %47, %50, %31
  %54 = phi i64 [ %32, %31 ], [ %49, %47 ], [ %52, %50 ]
  %.not67 = icmp ult i64 %.tr7386, %54
  br i1 %.not67, label %.thread, label %55

55:                                               ; preds = %53
  %56 = sub nuw i64 %.tr7386, %54
  br label %tailrecurse.backedge

tailrecurse.backedge:                             ; preds = %.thread, %55
  %.tr73.be = phi i64 [ %56, %55 ], [ 0, %.thread ]
  %.tr.be.in = getelementptr inbounds nuw i8, ptr %.tr85, i64 24
  %.tr.be = load ptr, ptr %.tr.be.in, align 8, !tbaa !22
  %57 = icmp eq ptr %.tr.be, null
  br i1 %57, label %.loopexit, label %.lr.ph

.thread:                                          ; preds = %53, %27
  %58 = load ptr, ptr %26, align 8, !tbaa !19
  %59 = tail call i32 @CORD_iter5(ptr noundef %58, i64 noundef %.tr7386, ptr noundef %2, ptr noundef %3, ptr noundef %4)
  %.not68 = icmp eq i32 %59, 0
  br i1 %.not68, label %tailrecurse.backedge, label %.loopexit

60:                                               ; preds = %22
  %61 = getelementptr inbounds nuw i8, ptr %.tr85, i64 8
  %62 = load i64, ptr %61, align 8, !tbaa !17
  %63 = icmp ult i64 %.tr7386, %62
  br i1 %63, label %.lr.ph90, label %.loopexit

.lr.ph90:                                         ; preds = %60
  %64 = getelementptr inbounds nuw i8, ptr %.tr85, i64 24
  br label %67

65:                                               ; preds = %67
  %66 = add i64 %.05489, 1
  %exitcond.not = icmp eq i64 %66, %62
  br i1 %exitcond.not, label %.loopexit, label %67, !llvm.loop !44

67:                                               ; preds = %.lr.ph90, %65
  %.05489 = phi i64 [ %.tr7386, %.lr.ph90 ], [ %66, %65 ]
  %68 = load ptr, ptr %26, align 8, !tbaa !23
  %69 = load ptr, ptr %64, align 8, !tbaa !25
  %70 = tail call signext i8 %68(i64 noundef %.05489, ptr noundef %69) #17
  %71 = tail call i32 %2(i8 noundef signext %70, ptr noundef %4) #17
  %.not62 = icmp eq i32 %71, 0
  br i1 %.not62, label %65, label %.loopexit

.loopexit:                                        ; preds = %tailrecurse.backedge, %.thread, %.preheader, %20, %65, %67, %5, %60, %16
  %.0 = phi i32 [ %17, %16 ], [ 0, %60 ], [ 0, %5 ], [ 0, %65 ], [ 1, %67 ], [ 0, %20 ], [ 1, %.preheader ], [ 0, %tailrecurse.backedge ], [ 1, %.thread ]
  ret i32 %.0
}